target datalayout = "e-m:e-p270:32:32-p271:32:32-p272:64:64-i64:64-i128:128-f80:128-n8:16:32:64-S128"
target triple = "x86_64-pc-linux-gnu"

@.str.3 = private unnamed_addr constant [7 x i8] c"7z\BC\AF'\1C\00", align 1
@.str.4 = private unnamed_addr constant [5 x i8] c"\7FELF\00", align 1

; Function Attrs: inlinehint nounwind uwtable
define internal i32 @archive_le32dec(ptr noundef %0) #6 {
  %2 = alloca ptr, align 8
  %3 = alloca ptr, align 8
  %4 = alloca i32, align 4
  %5 = alloca i32, align 4
  %6 = alloca i32, align 4
  %7 = alloca i32, align 4
  store ptr %0, ptr %2, align 8, !tbaa !103
  call void @llvm.lifetime.start.p0(i64 8, ptr %3) #12
  %8 = load ptr, ptr %2, align 8, !tbaa !103
  store ptr %8, ptr %3, align 8, !tbaa !43
  call void @llvm.lifetime.start.p0(i64 4, ptr %4) #12
  %9 = load ptr, ptr %3, align 8, !tbaa !43
  %10 = getelementptr inbounds i8, ptr %9, i64 3
  %11 = load i8, ptr %10, align 1, !tbaa !44
  %12 = zext i8 %11 to i32
  store i32 %12, ptr %4, align 4, !tbaa !11
  call void @llvm.lifetime.start.p0(i64 4, ptr %5) #12
  %13 = load ptr, ptr %3, align 8, !tbaa !43
  %14 = getelementptr inbounds i8, ptr %13, i64 2
  %15 = load i8, ptr %14, align 1, !tbaa !44
  %16 = zext i8 %15 to i32
  store i32 %16, ptr %5, align 4, !tbaa !11
  call void @llvm.lifetime.start.p0(i64 4, ptr %6) #12
  %17 = load ptr, ptr %3, align 8, !tbaa !43
  %18 = getelementptr inbounds i8, ptr %17, i64 1
  %19 = load i8, ptr %18, align 1, !tbaa !44
  %20 = zext i8 %19 to i32
  store i32 %20, ptr %6, align 4, !tbaa !11
  call void @llvm.lifetime.start.p0(i64 4, ptr %7) #12
  %21 = load ptr, ptr %3, align 8, !tbaa !43
  %22 = getelementptr inbounds i8, ptr %21, i64 0
  %23 = load i8, ptr %22, align 1, !tbaa !44
  %24 = zext i8 %23 to i32
  store i32 %24, ptr %7, align 4, !tbaa !11
  %25 = load i32, ptr %4, align 4, !tbaa !11
  %26 = shl i32 %25, 24
  %27 = load i32, ptr %5, align 4, !tbaa !11
  %28 = shl i32 %27, 16
  %29 = or i32 %26, %28
  %30 = load i32, ptr %6, align 4, !tbaa !11
  %31 = shl i32 %30, 8
  %32 = or i32 %29, %31
  %33 = load i32, ptr %7, align 4, !tbaa !11
  %34 = or i32 %32, %33
  call void @llvm.lifetime.end.p0(i64 4, ptr %7) #12
  call void @llvm.lifetime.end.p0(i64 4, ptr %6) #12
  call void @llvm.lifetime.end.p0(i64 4, ptr %5) #12
  call void @llvm.lifetime.end.p0(i64 4, ptr %4) #12
  call void @llvm.lifetime.end.p0(i64 8, ptr %3) #12
  ret i32 %34
}

; Function Attrs: nounwind uwtable
define internal i32 @check_7zip_header_in_sfx(ptr noundef %0) #0 {
  %2 = alloca i32, align 4
  %3 = alloca ptr, align 8
  store ptr %0, ptr %3, align 8, !tbaa !43
  %4 = load ptr, ptr %3, align 8, !tbaa !43
  %5 = getelementptr inbounds i8, ptr %4, i64 5
  %6 = load i8, ptr %5, align 1, !tbaa !44
  %7 = zext i8 %6 to i32
  switch i32 %7, label %29 [
    i32 28, label %8
    i32 55, label %24
    i32 122, label %25
    i32 188, label %26
    i32 175, label %27
    i32 39, label %28
  ]

8:                                                ; preds = %1
  %9 = load ptr, ptr %3, align 8, !tbaa !43
  %10 = call i32 @memcmp(ptr noundef %9, ptr noundef @.str.3, i64 noundef 6) #14
  %11 = icmp ne i32 %10, 0
  br i1 %11, label %12, label %13

12:                                               ; preds = %8
  store i32 6, ptr %2, align 4
  br label %30

13:                                               ; preds = %8
  %14 = load ptr, ptr %3, align 8, !tbaa !43
  %15 = getelementptr inbounds i8, ptr %14, i64 12
  %16 = call i64 @cm_zlib_crc32(i64 noundef 0, ptr noundef %15, i32 noundef 20)
  %17 = load ptr, ptr %3, align 8, !tbaa !43
  %18 = getelementptr inbounds i8, ptr %17, i64 8
  %19 = call i32 @archive_le32dec(ptr noundef %18)
  %20 = zext i32 %19 to i64
  %21 = icmp ne i64 %16, %20
  br i1 %21, label %22, label %23

22:                                               ; preds = %13
  store i32 6, ptr %2, align 4
  br label %30

23:                                               ; preds = %13
  store i32 0, ptr %2, align 4
  br label %30

24:                                               ; preds = %1
  store i32 5, ptr %2, align 4
  br label %30

25:                                               ; preds = %1
  store i32 4, ptr %2, align 4
  br label %30

26:                                               ; preds = %1
  store i32 3, ptr %2, align 4
  br label %30

27:                                               ; preds = %1
  store i32 2, ptr %2, align 4
  br label %30

28:                                               ; preds = %1
  store i32 1, ptr %2, align 4
  br label %30

29:                                               ; preds = %1
  store i32 6, ptr %2, align 4
  br label %30

30:                                               ; preds = %29, %28, %27, %26, %25, %24, %23, %22, %12
  %31 = load i32, ptr %2, align 4
  ret i32 %31
}

; Function Attrs: nounwind uwtable
define internal i32 @archive_read_format_7zip_bid(ptr noundef %0, i32 noundef %1) #0 {
  %3 = alloca i32, align 4
  %4 = alloca ptr, align 8
  %5 = alloca i32, align 4
  %6 = alloca ptr, align 8
  %7 = alloca i32, align 4
  %8 = alloca i64, align 8
  %9 = alloca i64, align 8
  %10 = alloca i64, align 8
  %11 = alloca ptr, align 8
  %12 = alloca i32, align 4
  store ptr %0, ptr %4, align 8, !tbaa !9
  store i32 %1, ptr %5, align 4, !tbaa !11
  call void @llvm.lifetime.start.p0(i64 8, ptr %6) #12
  %13 = load i32, ptr %5, align 4, !tbaa !11
  %14 = icmp sgt i32 %13, 32
  br i1 %14, label %15, label %16

15:                                               ; preds = %2
  store i32 -1, ptr %3, align 4
  store i32 1, ptr %7, align 4
  br label %102

16:                                               ; preds = %2
  %17 = load ptr, ptr %4, align 8, !tbaa !9
  %18 = call ptr @__archive_read_ahead(ptr noundef %17, i64 noundef 6, ptr noundef null)
  store ptr %18, ptr %6, align 8, !tbaa !43
  %19 = icmp eq ptr %18, null
  br i1 %19, label %20, label %21

20:                                               ; preds = %16
  store i32 0, ptr %3, align 4
  store i32 1, ptr %7, align 4
  br label %102

21:                                               ; preds = %16
  %22 = load ptr, ptr %6, align 8, !tbaa !43
  %23 = call i32 @memcmp(ptr noundef %22, ptr noundef @.str.3, i64 noundef 6) #14
  %24 = icmp eq i32 %23, 0
  br i1 %24, label %25, label %26

25:                                               ; preds = %21
  store i32 48, ptr %3, align 4
  store i32 1, ptr %7, align 4
  br label %102

26:                                               ; preds = %21
  %27 = load ptr, ptr %6, align 8, !tbaa !43
  %28 = getelementptr inbounds i8, ptr %27, i64 0
  %29 = load i8, ptr %28, align 1, !tbaa !44
  %30 = sext i8 %29 to i32
  %31 = icmp eq i32 %30, 77
  br i1 %31, label %32, label %38

32:                                               ; preds = %26
  %33 = load ptr, ptr %6, align 8, !tbaa !43
  %34 = getelementptr inbounds i8, ptr %33, i64 1
  %35 = load i8, ptr %34, align 1, !tbaa !44
  %36 = sext i8 %35 to i32
  %37 = icmp eq i32 %36, 90
  br i1 %37, label %42, label %38

38:                                               ; preds = %32, %26
  %39 = load ptr, ptr %6, align 8, !tbaa !43
  %40 = call i32 @memcmp(ptr noundef %39, ptr noundef @.str.4, i64 noundef 4) #14
  %41 = icmp eq i32 %40, 0
  br i1 %41, label %42, label %101

42:                                               ; preds = %38, %32
  call void @llvm.lifetime.start.p0(i64 8, ptr %8) #12
  store i64 159744, ptr %8, align 8, !tbaa !45
  call void @llvm.lifetime.start.p0(i64 8, ptr %9) #12
  store i64 4096, ptr %9, align 8, !tbaa !45
  call void @llvm.lifetime.start.p0(i64 8, ptr %10) #12
  br label %43

43:                                               ; preds = %96, %94, %42
  %44 = load i64, ptr %8, align 8, !tbaa !45
  %45 = load i64, ptr %9, align 8, !tbaa !45
  %46 = add nsw i64 %44, %45
  %47 = icmp sle i64 %46, 393216
  br i1 %47, label %48, label %97

48:                                               ; preds = %43
  call void @llvm.lifetime.start.p0(i64 8, ptr %11) #12
  %49 = load ptr, ptr %4, align 8, !tbaa !9
  %50 = load i64, ptr %8, align 8, !tbaa !45
  %51 = load i64, ptr %9, align 8, !tbaa !45
  %52 = add nsw i64 %50, %51
  %53 = call ptr @__archive_read_ahead(ptr noundef %49, i64 noundef %52, ptr noundef %10)
  store ptr %53, ptr %11, align 8, !tbaa !43
  %54 = load ptr, ptr %11, align 8, !tbaa !43
  %55 = icmp eq ptr %54, null
  br i1 %55, label %56, label %63

56:                                               ; preds = %48
  %57 = load i64, ptr %9, align 8, !tbaa !45
  %58 = ashr i64 %57, 1
  store i64 %58, ptr %9, align 8, !tbaa !45
  %59 = load i64, ptr %9, align 8, !tbaa !45
  %60 = icmp slt i64 %59, 64
  br i1 %60, label %61, label %62

61:                                               ; preds = %56
  store i32 0, ptr %3, align 4
  store i32 1, ptr %7, align 4
  br label %94

62:                                               ; preds = %56
  store i32 2, ptr %7, align 4
  br label %94, !llvm.loop !46

63:                                               ; preds = %48
  %64 = load ptr, ptr %11, align 8, !tbaa !43
  %65 = load i64, ptr %8, align 8, !tbaa !45
  %66 = getelementptr inbounds i8, ptr %64, i64 %65
  store ptr %66, ptr %6, align 8, !tbaa !43
  br label %67

67:                                               ; preds = %87, %63
  %68 = load ptr, ptr %6, align 8, !tbaa !43
  %69 = getelementptr inbounds i8, ptr %68, i64 32
  %70 = load ptr, ptr %11, align 8, !tbaa !43
  %71 = load i64, ptr %10, align 8, !tbaa !45
  %72 = getelementptr inbounds i8, ptr %70, i64 %71
  %73 = icmp ult ptr %69, %72
  br i1 %73, label %74, label %88

74:                                               ; preds = %67
  call void @llvm.lifetime.start.p0(i64 4, ptr %12) #12
  %75 = load ptr, ptr %6, align 8, !tbaa !43
  %76 = call i32 @check_7zip_header_in_sfx(ptr noundef %75)
  store i32 %76, ptr %12, align 4, !tbaa !11
  %77 = load i32, ptr %12, align 4, !tbaa !11
  %78 = icmp eq i32 %77, 0
  br i1 %78, label %79, label %80

79:                                               ; preds = %74
  store i32 48, ptr %3, align 4
  store i32 1, ptr %7, align 4
  br label %85

80:                                               ; preds = %74
  %81 = load i32, ptr %12, align 4, !tbaa !11
  %82 = load ptr, ptr %6, align 8, !tbaa !43
  %83 = sext i32 %81 to i64
  %84 = getelementptr inbounds i8, ptr %82, i64 %83
  store ptr %84, ptr %6, align 8, !tbaa !43
  store i32 0, ptr %7, align 4
  br label %85

85:                                               ; preds = %80, %79
  call void @llvm.lifetime.end.p0(i64 4, ptr %12) #12
  %86 = load i32, ptr %7, align 4
  switch i32 %86, label %94 [
    i32 0, label %87
  ]

87:                                               ; preds = %85
  br label %67, !llvm.loop !48

88:                                               ; preds = %67
  %89 = load ptr, ptr %6, align 8, !tbaa !43
  %90 = load ptr, ptr %11, align 8, !tbaa !43
  %91 = ptrtoint ptr %89 to i64
  %92 = ptrtoint ptr %90 to i64
  %93 = sub i64 %91, %92
  store i64 %93, ptr %8, align 8, !tbaa !45
  store i32 0, ptr %7, align 4
  br label %94

94:                                               ; preds = %88, %85, %62, %61
  call void @llvm.lifetime.end.p0(i64 8, ptr %11) #12
  %95 = load i32, ptr %7, align 4
  switch i32 %95, label %98 [
    i32 0, label %96
    i32 2, label %43
  ]

96:                                               ; preds = %94
  br label %43, !llvm.loop !46

97:                                               ; preds = %43
  store i32 0, ptr %7, align 4
  br label %98

98:                                               ; preds = %97, %94
  call void @llvm.lifetime.end.p0(i64 8, ptr %10) #12
  call void @llvm.lifetime.end.p0(i64 8, ptr %9) #12
  call void @llvm.lifetime.end.p0(i64 8, ptr %8) #12
  %99 = load i32, ptr %7, align 4
  switch i32 %99, label %102 [
    i32 0, label %100
  ]

100:                                              ; preds = %98
  br label %101

101:                                              ; preds = %100, %38
  store i32 0, ptr %3, align 4
  store i32 1, ptr %7, align 4
  br label %102

102:                                              ; preds = %101, %98, %25, %20, %15
  call void @llvm.lifetime.end.p0(i64 8, ptr %6) #12
  %103 = load i32, ptr %3, align 4
  ret i32 %103
}